target datalayout = "e-m:e-p270:32:32-p271:32:32-p272:64:64-i64:64-i128:128-f80:128-n8:16:32:64-S128"
target triple = "x86_64-pc-linux-gnu"

%struct.FunctionCallInfoBaseData = type { ptr, ptr, ptr, i32, i8, i16, [0 x %struct.NullableDatum] }
%struct.NullableDatum = type { i64, i8 }
%struct.StringInfoData = type { ptr, i32, i32, i32 }

@.str.6 = private unnamed_addr constant [1 x i8] zeroinitializer, align 1
@.str.10 = private unnamed_addr constant [3 x i8] c", \00", align 1

; Function Attrs: inlinehint nounwind uwtable
define internal i64 @PointerGetDatum(ptr noundef %0) #2 {
  %2 = alloca ptr, align 8
  store ptr %0, ptr %2, align 8
  %3 = load ptr, ptr %2, align 8
  %4 = ptrtoint ptr %3 to i64
  ret i64 %4
}

; Function Attrs: nounwind uwtable
define dso_local i64 @json_build_array_worker(i32 noundef %0, ptr noundef %1, ptr noundef %2, ptr noundef %3, i1 noundef zeroext %4) #0 {
  %6 = alloca i32, align 4
  %7 = alloca ptr, align 8
  %8 = alloca ptr, align 8
  %9 = alloca ptr, align 8
  %10 = alloca i8, align 1
  %11 = alloca i32, align 4
  %12 = alloca ptr, align 8
  %13 = alloca ptr, align 8
  store i32 %0, ptr %6, align 4
  store ptr %1, ptr %7, align 8
  store ptr %2, ptr %8, align 8
  store ptr %3, ptr %9, align 8
  %14 = zext i1 %4 to i8
  store i8 %14, ptr %10, align 1
  call void @llvm.lifetime.start.p0(i64 4, ptr %11) #14
  call void @llvm.lifetime.start.p0(i64 8, ptr %12) #14
  store ptr @.str.6, ptr %12, align 8
  call void @llvm.lifetime.start.p0(i64 8, ptr %13) #14
  %15 = call ptr @makeStringInfo()
  store ptr %15, ptr %13, align 8
  %16 = load ptr, ptr %13, align 8
  call void @appendStringInfoChar(ptr noundef %16, i8 noundef signext 91)
  store i32 0, ptr %11, align 4
  br label %17

17:                                               ; preds = %52, %5
  %18 = load i32, ptr %11, align 4
  %19 = load i32, ptr %6, align 4
  %20 = icmp slt i32 %18, %19
  br i1 %20, label %21, label %55

21:                                               ; preds = %17
  %22 = load i8, ptr %10, align 1, !range !4, !noundef !5
  %23 = trunc i8 %22 to i1
  br i1 %23, label %24, label %32

24:                                               ; preds = %21
  %25 = load ptr, ptr %8, align 8
  %26 = load i32, ptr %11, align 4
  %27 = sext i32 %26 to i64
  %28 = getelementptr inbounds i8, ptr %25, i64 %27
  %29 = load i8, ptr %28, align 1, !range !4, !noundef !5
  %30 = trunc i8 %29 to i1
  br i1 %30, label %31, label %32

31:                                               ; preds = %24
  br label %52

32:                                               ; preds = %24, %21
  %33 = load ptr, ptr %13, align 8
  %34 = load ptr, ptr %12, align 8
  call void @appendStringInfoString(ptr noundef %33, ptr noundef %34)
  store ptr @.str.10, ptr %12, align 8
  %35 = load ptr, ptr %7, align 8
  %36 = load i32, ptr %11, align 4
  %37 = sext i32 %36 to i64
  %38 = getelementptr inbounds i64, ptr %35, i64 %37
  %39 = load i64, ptr %38, align 8
  %40 = load ptr, ptr %8, align 8
  %41 = load i32, ptr %11, align 4
  %42 = sext i32 %41 to i64
  %43 = getelementptr inbounds i8, ptr %40, i64 %42
  %44 = load i8, ptr %43, align 1, !range !4, !noundef !5
  %45 = trunc i8 %44 to i1
  %46 = load ptr, ptr %13, align 8
  %47 = load ptr, ptr %9, align 8
  %48 = load i32, ptr %11, align 4
  %49 = sext i32 %48 to i64
  %50 = getelementptr inbounds i32, ptr %47, i64 %49
  %51 = load i32, ptr %50, align 4
  call void @add_json(i64 noundef %39, i1 noundef zeroext %45, ptr noundef %46, i32 noundef %51, i1 noundef zeroext false)
  br label %52

52:                                               ; preds = %32, %31
  %53 = load i32, ptr %11, align 4
  %54 = add i32 %53, 1
  store i32 %54, ptr %11, align 4
  br label %17, !llvm.loop !9

55:                                               ; preds = %17
  %56 = load ptr, ptr %13, align 8
  call void @appendStringInfoChar(ptr noundef %56, i8 noundef signext 93)
  %57 = load ptr, ptr %13, align 8
  %58 = getelementptr inbounds nuw %struct.StringInfoData, ptr %57, i32 0, i32 0
  %59 = load ptr, ptr %58, align 8
  %60 = load ptr, ptr %13, align 8
  %61 = getelementptr inbounds nuw %struct.StringInfoData, ptr %60, i32 0, i32 1
  %62 = load i32, ptr %61, align 8
  %63 = call ptr @cstring_to_text_with_len(ptr noundef %59, i32 noundef %62)
  %64 = call i64 @PointerGetDatum(ptr noundef %63)
  call void @llvm.lifetime.end.p0(i64 8, ptr %13) #14
  call void @llvm.lifetime.end.p0(i64 8, ptr %12) #14
  call void @llvm.lifetime.end.p0(i64 4, ptr %11) #14
  ret i64 %64
}

; Function Attrs: nounwind uwtable
define dso_local i64 @json_build_array(ptr noundef %0) #0 {
  %2 = alloca i64, align 8
  %3 = alloca ptr, align 8
  %4 = alloca ptr, align 8
  %5 = alloca ptr, align 8
  %6 = alloca ptr, align 8
  %7 = alloca i32, align 4
  %8 = alloca i32, align 4
  store ptr %0, ptr %3, align 8
  call void @llvm.lifetime.start.p0(i64 8, ptr %4) #14
  call void @llvm.lifetime.start.p0(i64 8, ptr %5) #14
  call void @llvm.lifetime.start.p0(i64 8, ptr %6) #14
  call void @llvm.lifetime.start.p0(i64 4, ptr %7) #14
  %9 = load ptr, ptr %3, align 8
  %10 = call i32 @extract_variadic_args(ptr noundef %9, i32 noundef 0, i1 noundef zeroext true, ptr noundef %4, ptr noundef %6, ptr noundef %5)
  store i32 %10, ptr %7, align 4
  %11 = load i32, ptr %7, align 4
  %12 = icmp slt i32 %11, 0
  br i1 %12, label %13, label %19

13:                                               ; preds = %1
  br label %14

14:                                               ; preds = %13
  %15 = load ptr, ptr %3, align 8
  %16 = getelementptr inbounds nuw %struct.FunctionCallInfoBaseData, ptr %15, i32 0, i32 4
  store i8 1, ptr %16, align 4
  store i64 0, ptr %2, align 8
  store i32 1, ptr %8, align 4
  br label %25

17:                                               ; No predecessors!
  br label %18

18:                                               ; preds = %17
  br label %19

19:                                               ; preds = %18, %1
  %20 = load i32, ptr %7, align 4
  %21 = load ptr, ptr %4, align 8
  %22 = load ptr, ptr %5, align 8
  %23 = load ptr, ptr %6, align 8
  %24 = call i64 @json_build_array_worker(i32 noundef %20, ptr noundef %21, ptr noundef %22, ptr noundef %23, i1 noundef zeroext false)
  store i64 %24, ptr %2, align 8
  store i32 1, ptr %8, align 4
  br label %25

25:                                               ; preds = %19, %14
  call void @llvm.lifetime.end.p0(i64 4, ptr %7) #14
  call void @llvm.lifetime.end.p0(i64 8, ptr %6) #14
  call void @llvm.lifetime.end.p0(i64 8, ptr %5) #14
  call void @llvm.lifetime.end.p0(i64 8, ptr %4) #14
  %26 = load i64, ptr %2, align 8
  ret i64 %26
}