; Function Attrs: nounwind uwtable
define dso_local i64 @json_build_array(ptr noundef %0) local_unnamed_addr #0 {
  %2 = alloca ptr, align 8
  %3 = alloca ptr, align 8
  %4 = alloca ptr, align 8
  call void @llvm.lifetime.start.p0(i64 8, ptr nonnull %2) #10
  call void @llvm.lifetime.start.p0(i64 8, ptr nonnull %3) #10
  call void @llvm.lifetime.start.p0(i64 8, ptr nonnull %4) #10
  %5 = call i32 @extract_variadic_args(ptr noundef %0, i32 noundef 0, i1 noundef zeroext true, ptr noundef nonnull %2, ptr noundef nonnull %4, ptr noundef nonnull %3) #10
  %6 = icmp slt i32 %5, 0
  br i1 %6, label %7, label %9

7:                                                ; preds = %1
  %8 = getelementptr inbounds nuw i8, ptr %0, i64 28
  store i8 1, ptr %8, align 4
  br label %26

9:                                                ; preds = %1
  %10 = load ptr, ptr %2, align 8
  %11 = load ptr, ptr %3, align 8
  %12 = load ptr, ptr %4, align 8
  %13 = call ptr @makeStringInfo() #10
  call void @appendStringInfoChar(ptr noundef %13, i8 noundef signext 91) #10
  %.not = icmp eq i32 %5, 0
  br i1 %.not, label %json_build_array_worker.exit, label %.lr.ph.i

.lr.ph.i:                                         ; preds = %9
  %wide.trip.count26.i = zext nneg i32 %5 to i64
  br label %.lr.ph.split.i

.lr.ph.split.i:                                   ; preds = %.lr.ph.split.i, %.lr.ph.i
  %indvars.iv.i = phi i64 [ %indvars.iv.next.i, %.lr.ph.split.i ], [ 0, %.lr.ph.i ]
  %.01819.i = phi ptr [ @.str.10, %.lr.ph.split.i ], [ @.str.6, %.lr.ph.i ]
  call void @appendStringInfoString(ptr noundef %13, ptr noundef nonnull %.01819.i) #10
  %14 = getelementptr inbounds nuw i64, ptr %10, i64 %indvars.iv.i
  %15 = load i64, ptr %14, align 8
  %16 = getelementptr inbounds nuw i8, ptr %11, i64 %indvars.iv.i
  %17 = load i8, ptr %16, align 1, !range !4, !noundef !5
  %18 = trunc nuw i8 %17 to i1
  %19 = getelementptr inbounds nuw i32, ptr %12, i64 %indvars.iv.i
  %20 = load i32, ptr %19, align 4
  call fastcc void @add_json(i64 noundef %15, i1 noundef zeroext %18, ptr noundef %13, i32 noundef %20, i1 noundef zeroext false)
  %indvars.iv.next.i = add nuw nsw i64 %indvars.iv.i, 1
  %exitcond.not.i = icmp eq i64 %indvars.iv.next.i, %wide.trip.count26.i
  br i1 %exitcond.not.i, label %json_build_array_worker.exit, label %.lr.ph.split.i, !llvm.loop !9

json_build_array_worker.exit:                     ; preds = %.lr.ph.split.i, %9
  call void @appendStringInfoChar(ptr noundef %13, i8 noundef signext 93) #10
  %21 = load ptr, ptr %13, align 8
  %22 = getelementptr inbounds nuw i8, ptr %13, i64 8
  %23 = load i32, ptr %22, align 8
  %24 = call ptr @cstring_to_text_with_len(ptr noundef %21, i32 noundef %23) #10
  %25 = ptrtoint ptr %24 to i64
  br label %26

26:                                               ; preds = %json_build_array_worker.exit, %7
  %.0 = phi i64 [ 0, %7 ], [ %25, %json_build_array_worker.exit ]
  call void @llvm.lifetime.end.p0(i64 8, ptr nonnull %4) #10
  call void @llvm.lifetime.end.p0(i64 8, ptr nonnull %3) #10
  call void @llvm.lifetime.end.p0(i64 8, ptr nonnull %2) #10
  ret i64 %.0
}